Certificate:
    Data:
        Version: 3 (0x2)
        Serial Number: 2 (0x2)
    Signature Algorithm: sha256WithRSAEncryption
        Issuer: C=FR, ST=Radius, L=Somewhere, O=Example Inc./emailAddress=admin@example.com, CN=Example Certificate Authority
        Validity
            Not Before: Nov 28 08:15:31 2016 GMT
            Not After : Jan 27 08:15:31 2017 GMT
        Subject: C=FR, ST=Radius, O=Example Inc., CN=user@example.com/emailAddress=user@example.com
        Subject Public Key Info:
            Public Key Algorithm: rsaEncryption
                Public-Key: (2048 bit)
                Modulus:
                    00:f5:24:b2:d2:38:57:f1:13:12:84:80:c5:0c:fb:
                    fe:a2:eb:d2:40:94:ad:04:6b:f6:9b:07:6a:af:80:
                    2e:2e:66:8b:b8:cd:f4:62:ee:26:0f:c5:31:13:a0:
                    35:d2:50:74:52:86:d0:8f:15:eb:10:e6:74:1b:4f:
                    b5:0e:62:5d:9c:da:91:85:bc:fc:5c:1a:3a:d0:91:
                    e0:3e:b8:42:c5:f4:9f:04:1d:b5:aa:0b:5d:f3:78:
                    3b:b6:4f:d4:6d:73:f7:5b:0a:8d:9c:65:c0:29:dd:
                    52:52:da:14:88:a5:e4:ad:7f:8f:02:ba:2a:fc:db:
                    a7:52:d3:8c:2a:f6:4b:81:67:18:91:00:5c:9f:81:
                    ae:3c:59:89:0f:e1:c9:20:0f:57:b1:e7:f1:d3:a6:
                    9f:c5:de:6c:cf:ee:a8:f8:28:25:26:0c:e3:7b:f2:
                    f9:31:db:56:f6:d1:5f:90:bd:cf:2b:2c:77:cd:64:
                    bf:83:31:44:c6:9b:7f:f6:20:b7:fe:68:f7:fb:d3:
                    2c:1c:2b:40:f1:8e:14:a1:57:cf:89:64:13:4d:79:
                    67:e3:91:7a:04:43:79:93:82:73:55:87:7a:10:ed:
                    2a:cf:b9:83:20:aa:0d:1c:ca:2d:22:cc:f1:1d:48:
                    c4:c8:6f:eb:59:8b:d7:77:88:23:f5:2b:53:1e:ce:
                    f1:91
                Exponent: 65537 (0x10001)
        X509v3 extensions:
            X509v3 Extended Key Usage: 
                TLS Web Client Authentication
            X509v3 CRL Distribution Points: 

                Full Name:
                  URI:http://www.example.com/example_ca.crl

    Signature Algorithm: sha256WithRSAEncryption
         62:4a:d2:99:57:61:f4:b6:72:29:fc:98:01:97:ad:67:82:84:
         8d:69:5d:ab:75:30:39:14:99:0f:6c:b0:24:06:b2:23:90:f4:
         fe:17:b0:19:7b:f7:2d:c5:41:bb:63:b0:81:f6:a2:1c:87:c9:
         10:e3:57:7d:9f:4f:30:23:66:70:83:01:90:30:9a:df:d8:7d:
         95:94:bd:ca:d0:ad:63:13:f4:c9:31:70:cc:69:db:ad:4f:db:
         2a:ef:46:42:90:d4:03:c1:49:8d:bf:fa:80:f4:c3:3d:d4:51:
         76:db:03:25:db:f8:0c:d5:1e:fc:96:ec:46:6c:c9:54:2b:cf:
         d3:4b:c6:2c:07:a4:93:0e:0c:77:c5:78:c2:31:06:cd:e8:2a:
         e2:af:1e:6f:78:46:8e:d0:6b:08:32:1b:4e:ec:24:23:6d:9b:
         d8:d0:b6:d8:9a:dc:92:91:68:89:19:2f:80:91:45:42:8c:03:
         27:aa:00:63:27:52:51:3f:06:b7:b3:a2:44:5b:d5:5d:33:44:
         e7:6a:74:49:c2:57:0b:09:60:c2:10:52:74:79:16:6c:23:72:
         16:bd:c1:8f:b9:1b:c0:7f:d9:f2:9c:67:96:89:47:86:5e:a1:
         14:90:27:07:44:ce:ca:69:6e:cb:e4:3d:28:2d:54:b9:35:eb:
         b1:f2:81:ed
-----BEGIN CERTIFICATE-----
MIIDzzCCAregAwIBAgIBAjANBgkqhkiG9w0BAQsFADCBkzELMAkGA1UEBhMCRlIx
DzANBgNVBAgTBlJhZGl1czESMBAGA1UEBxMJU29tZXdoZXJlMRUwEwYDVQQKEwxF
eGFtcGxlIEluYy4xIDAeBgkqhkiG9w0BCQEWEWFkbWluQGV4YW1wbGUuY29tMSYw
JAYDVQQDEx1FeGFtcGxlIENlcnRpZmljYXRlIEF1dGhvcml0eTAeFw0xNjExMjgw
ODE1MzFaFw0xNzAxMjcwODE1MzFaMHExCzAJBgNVBAYTAkZSMQ8wDQYDVQQIEwZS
YWRpdXMxFTATBgNVBAoTDEV4YW1wbGUgSW5jLjEZMBcGA1UEAxQQdXNlckBleGFt
cGxlLmNvbTEfMB0GCSqGSIb3DQEJARYQdXNlckBleGFtcGxlLmNvbTCCASIwDQYJ
KoZIhvcNAQEBBQADggEPADCCAQoCggEBAPUkstI4V/ETEoSAxQz7/qLr0kCUrQRr
9psHaq+ALi5mi7jN9GLuJg/FMROgNdJQdFKG0I8V6xDmdBtPtQ5iXZzakYW8/Fwa
OtCR4D64QsX0nwQdtaoLXfN4O7ZP1G1z91sKjZxlwCndUlLaFIil5K1/jwK6Kvzb
p1LTjCr2S4FnGJEAXJ+BrjxZiQ/hySAPV7Hn8dOmn8XebM/uqPgoJSYM43vy+THb
VvbRX5C9zyssd81kv4MxRMabf/Ygt/5o9/vTLBwrQPGOFKFXz4lkE015Z+ORegRD
eZOCc1WHehDtKs+5gyCqDRzKLSLM8R1IxMhv61mL13eII/UrUx7O8ZECAwEAAaNP
ME0wEwYDVR0lBAwwCgYIKwYBBQUHAwIwNgYDVR0fBC8wLTAroCmgJ4YlaHR0cDov
L3d3dy5leGFtcGxlLmNvbS9leGFtcGxlX2NhLmNybDANBgkqhkiG9w0BAQsFAAOC
AQEAYkrSmVdh9LZyKfyYAZetZ4KEjWldq3UwORSZD2ywJAayI5D0/hewGXv3LcVB
u2OwgfaiHIfJEONXfZ9PMCNmcIMBkDCa39h9lZS9ytCtYxP0yTFwzGnbrU/bKu9G
QpDUA8FJjb/6gPTDPdRRdtsDJdv4DNUe/JbsRmzJVCvP00vGLAekkw4Md8V4wjEG
zegq4q8eb3hGjtBrCDIbTuwkI22b2NC22JrckpFoiRkvgJFFQowDJ6oAYydSUT8G
t7OiRFvVXTNE52p0ScJXCwlgwhBSdHkWbCNyFr3Bj7kbwH/Z8pxnlolHhl6hFJAn
B0TOymluy+Q9KC1UuTXrsfKB7Q==
-----END CERTIFICATE-----
